target datalayout = "e-m:e-p270:32:32-p271:32:32-p272:64:64-i64:64-i128:128-f80:128-n8:16:32:64-S128"
target triple = "x86_64-unknown-linux-gnu"

@.str.4 = private unnamed_addr constant [5 x i8] c"info\00", align 1
@.str.10 = private unnamed_addr constant [10 x i8] c"<unknown>\00", align 1
@.str.11 = private unnamed_addr constant [4 x i8] c"ack\00", align 1
@.str.12 = private unnamed_addr constant [7 x i8] c"server\00", align 1
@.str.13 = private unnamed_addr constant [13 x i8] c"meta context\00", align 1
@.str.14 = private unnamed_addr constant [12 x i8] c"unsupported\00", align 1
@.str.15 = private unnamed_addr constant [17 x i8] c"denied by policy\00", align 1
@.str.16 = private unnamed_addr constant [8 x i8] c"invalid\00", align 1
@.str.17 = private unnamed_addr constant [23 x i8] c"platform lacks support\00", align 1
@.str.18 = private unnamed_addr constant [13 x i8] c"TLS required\00", align 1
@.str.19 = private unnamed_addr constant [15 x i8] c"export unknown\00", align 1
@.str.20 = private unnamed_addr constant [21 x i8] c"server shutting down\00", align 1
@.str.21 = private unnamed_addr constant [20 x i8] c"block size required\00", align 1
@.str.22 = private unnamed_addr constant [23 x i8] c"option payload too big\00", align 1
@.str.23 = private unnamed_addr constant [26 x i8] c"extended headers required\00", align 1

; Function Attrs: nounwind sspstrong uwtable
define dso_local ptr @nbd_rep_lookup(i32 noundef %rep) #0 {
entry:
  %retval = alloca ptr, align 8
  %rep.addr = alloca i32, align 4
  store i32 %rep, ptr %rep.addr, align 4
  %0 = load i32, ptr %rep.addr, align 4
  switch i32 %0, label %sw.default [
    i32 1, label %sw.bb
    i32 2, label %sw.bb1
    i32 3, label %sw.bb2
    i32 4, label %sw.bb3
    i32 -2147483647, label %sw.bb4
    i32 -2147483646, label %sw.bb5
    i32 -2147483645, label %sw.bb6
    i32 -2147483644, label %sw.bb7
    i32 -2147483643, label %sw.bb8
    i32 -2147483642, label %sw.bb9
    i32 -2147483641, label %sw.bb10
    i32 -2147483640, label %sw.bb11
    i32 -2147483639, label %sw.bb12
    i32 -2147483638, label %sw.bb13
  ]

sw.bb:                                            ; preds = %entry
  store ptr @.str.11, ptr %retval, align 8
  br label %return

sw.bb1:                                           ; preds = %entry
  store ptr @.str.12, ptr %retval, align 8
  br label %return

sw.bb2:                                           ; preds = %entry
  store ptr @.str.4, ptr %retval, align 8
  br label %return

sw.bb3:                                           ; preds = %entry
  store ptr @.str.13, ptr %retval, align 8
  br label %return

sw.bb4:                                           ; preds = %entry
  store ptr @.str.14, ptr %retval, align 8
  br label %return

sw.bb5:                                           ; preds = %entry
  store ptr @.str.15, ptr %retval, align 8
  br label %return

sw.bb6:                                           ; preds = %entry
  store ptr @.str.16, ptr %retval, align 8
  br label %return

sw.bb7:                                           ; preds = %entry
  store ptr @.str.17, ptr %retval, align 8
  br label %return

sw.bb8:                                           ; preds = %entry
  store ptr @.str.18, ptr %retval, align 8
  br label %return

sw.bb9:                                           ; preds = %entry
  store ptr @.str.19, ptr %retval, align 8
  br label %return

sw.bb10:                                          ; preds = %entry
  store ptr @.str.20, ptr %retval, align 8
  br label %return

sw.bb11:                                          ; preds = %entry
  store ptr @.str.21, ptr %retval, align 8
  br label %return

sw.bb12:                                          ; preds = %entry
  store ptr @.str.22, ptr %retval, align 8
  br label %return

sw.bb13:                                          ; preds = %entry
  store ptr @.str.23, ptr %retval, align 8
  br label %return

sw.default:                                       ; preds = %entry
  store ptr @.str.10, ptr %retval, align 8
  br label %return

return:                                           ; preds = %sw.default, %sw.bb13, %sw.bb12, %sw.bb11, %sw.bb10, %sw.bb9, %sw.bb8, %sw.bb7, %sw.bb6, %sw.bb5, %sw.bb4, %sw.bb3, %sw.bb2, %sw.bb1, %sw.bb
  %1 = load ptr, ptr %retval, align 8
  ret ptr %1
}