; Function Attrs: mustprogress nofree norecurse nosync nounwind sspstrong willreturn memory(none) uwtable
define dso_local noundef nonnull ptr @nbd_rep_lookup(i32 noundef %rep) local_unnamed_addr #3 {
entry:
  switch i32 %rep, label %sw.default [
    i32 1, label %return
    i32 2, label %sw.bb1
    i32 3, label %sw.bb2
    i32 4, label %sw.bb3
    i32 -2147483647, label %sw.bb4
    i32 -2147483646, label %sw.bb5
    i32 -2147483645, label %sw.bb6
    i32 -2147483644, label %sw.bb7
    i32 -2147483643, label %sw.bb8
    i32 -2147483642, label %sw.bb9
    i32 -2147483641, label %sw.bb10
    i32 -2147483640, label %sw.bb11
    i32 -2147483639, label %sw.bb12
    i32 -2147483638, label %sw.bb13
  ]

sw.bb1:                                           ; preds = %entry
  br label %return

sw.bb2:                                           ; preds = %entry
  br label %return

sw.bb3:                                           ; preds = %entry
  br label %return

sw.bb4:                                           ; preds = %entry
  br label %return

sw.bb5:                                           ; preds = %entry
  br label %return

sw.bb6:                                           ; preds = %entry
  br label %return

sw.bb7:                                           ; preds = %entry
  br label %return

sw.bb8:                                           ; preds = %entry
  br label %return

sw.bb9:                                           ; preds = %entry
  br label %return

sw.bb10:                                          ; preds = %entry
  br label %return

sw.bb11:                                          ; preds = %entry
  br label %return

sw.bb12:                                          ; preds = %entry
  br label %return

sw.bb13:                                          ; preds = %entry
  br label %return

sw.default:                                       ; preds = %entry
  br label %return

return:                                           ; preds = %entry, %sw.default, %sw.bb13, %sw.bb12, %sw.bb11, %sw.bb10, %sw.bb9, %sw.bb8, %sw.bb7, %sw.bb6, %sw.bb5, %sw.bb4, %sw.bb3, %sw.bb2, %sw.bb1
  %retval.0 = phi ptr [ @.str.10, %sw.default ], [ @.str.23, %sw.bb13 ], [ @.str.22, %sw.bb12 ], [ @.str.21, %sw.bb11 ], [ @.str.20, %sw.bb10 ], [ @.str.19, %sw.bb9 ], [ @.str.18, %sw.bb8 ], [ @.str.17, %sw.bb7 ], [ @.str.16, %sw.bb6 ], [ @.str.15, %sw.bb5 ], [ @.str.14, %sw.bb4 ], [ @.str.13, %sw.bb3 ], [ @.str.4, %sw.bb2 ], [ @.str.12, %sw.bb1 ], [ @.str.11, %entry ]
  ret ptr %retval.0
}